; Function Attrs: mustprogress uwtable
define hidden noundef i32 @_ZN11bv_rewriter24mk_bvsadd_over_underflowEjPKP4exprR7obj_refIS0_11ast_managerE(ptr noundef nonnull align 8 dereferenceable(157) %0, i32 %1, ptr noundef readonly captures(none) %2, ptr noundef nonnull align 8 captures(none) dereferenceable(16) %3) local_unnamed_addr #3 align 2 personality ptr @__gxx_personality_v0 {
  %5 = alloca %class.obj_ref, align 8
  %6 = alloca %class.obj_ref, align 8
  call void @llvm.lifetime.start.p0(i64 16, ptr nonnull %5) #24
  %7 = load ptr, ptr %0, align 8, !tbaa !76
  store ptr null, ptr %5, align 8, !tbaa !72
  %8 = getelementptr inbounds nuw i8, ptr %5, i64 8
  store ptr %7, ptr %8, align 8, !tbaa !101
  call void @llvm.lifetime.start.p0(i64 16, ptr nonnull %6) #24
  store ptr null, ptr %6, align 8, !tbaa !72
  %9 = getelementptr inbounds nuw i8, ptr %6, i64 8
  store ptr %7, ptr %9, align 8, !tbaa !101
  %10 = invoke noundef i32 @_ZN11bv_rewriter18mk_bvsadd_overflowEjPKP4exprR7obj_refIS0_11ast_managerE(ptr noundef nonnull align 8 dereferenceable(157) %0, i32 poison, ptr noundef %2, ptr noundef nonnull align 8 dereferenceable(16) %5)
          to label %11 unwind label %52

11:                                               ; preds = %4
  %12 = invoke noundef i32 @_ZN11bv_rewriter19mk_bvsadd_underflowEjPKP4exprR7obj_refIS0_11ast_managerE(ptr noundef nonnull align 8 dereferenceable(157) %0, i32 poison, ptr noundef %2, ptr noundef nonnull align 8 dereferenceable(16) %6)
          to label %13 unwind label %52

13:                                               ; preds = %11
  %14 = load ptr, ptr %0, align 8, !tbaa !76
  %15 = load ptr, ptr %5, align 8, !tbaa !72
  %16 = load ptr, ptr %6, align 8, !tbaa !72
  %17 = invoke noundef ptr @_ZN11ast_manager6mk_appEiiP4exprS1_(ptr noundef nonnull align 8 dereferenceable(976) %14, i32 noundef 0, i32 noundef 6, ptr noundef %15, ptr noundef %16)
          to label %_ZN11ast_manager5mk_orEP4exprS1_.exit unwind label %52

_ZN11ast_manager5mk_orEP4exprS1_.exit:            ; preds = %13
  %.not.i = icmp eq ptr %17, null
  br i1 %.not.i, label %21, label %_ZN11ast_manager7inc_refEP3ast.exit.i

_ZN11ast_manager7inc_refEP3ast.exit.i:            ; preds = %_ZN11ast_manager5mk_orEP4exprS1_.exit
  %18 = getelementptr inbounds nuw i8, ptr %17, i64 8
  %19 = load i32, ptr %18, align 4, !tbaa !71
  %20 = add i32 %19, 1
  store i32 %20, ptr %18, align 4, !tbaa !71
  br label %21

21:                                               ; preds = %_ZN11ast_manager7inc_refEP3ast.exit.i, %_ZN11ast_manager5mk_orEP4exprS1_.exit
  %22 = load ptr, ptr %3, align 8, !tbaa !72
  %.not.i4.i = icmp eq ptr %22, null
  br i1 %.not.i4.i, label %31, label %23

23:                                               ; preds = %21
  %24 = getelementptr inbounds nuw i8, ptr %3, i64 8
  %25 = load ptr, ptr %24, align 8, !tbaa !73
  %26 = getelementptr inbounds nuw i8, ptr %22, i64 8
  %27 = load i32, ptr %26, align 4, !tbaa !71
  %28 = add i32 %27, -1
  store i32 %28, ptr %26, align 4, !tbaa !71
  %29 = icmp eq i32 %28, 0
  br i1 %29, label %30, label %31

30:                                               ; preds = %23
  invoke void @_ZN11ast_manager11delete_nodeEP3ast(ptr noundef nonnull align 8 dereferenceable(976) %25, ptr noundef nonnull %22)
          to label %31 unwind label %52

31:                                               ; preds = %23, %21, %30
  store ptr %17, ptr %3, align 8, !tbaa !72
  %.not.i.i = icmp eq ptr %16, null
  br i1 %.not.i.i, label %_ZN7obj_refI4expr11ast_managerED2Ev.exit, label %32

32:                                               ; preds = %31
  %33 = load ptr, ptr %9, align 8, !tbaa !73
  %34 = getelementptr inbounds nuw i8, ptr %16, i64 8
  %35 = load i32, ptr %34, align 4, !tbaa !71
  %36 = add i32 %35, -1
  store i32 %36, ptr %34, align 4, !tbaa !71
  %37 = icmp eq i32 %36, 0
  br i1 %37, label %38, label %_ZN7obj_refI4expr11ast_managerED2Ev.exit

38:                                               ; preds = %32
  invoke void @_ZN11ast_manager11delete_nodeEP3ast(ptr noundef nonnull align 8 dereferenceable(976) %33, ptr noundef nonnull %16)
          to label %_ZN7obj_refI4expr11ast_managerED2Ev.exit unwind label %39

39:                                               ; preds = %38
  %40 = landingpad { ptr, i32 }
          catch ptr null
  %41 = extractvalue { ptr, i32 } %40, 0
  tail call void @__clang_call_terminate(ptr %41) #26
  unreachable

_ZN7obj_refI4expr11ast_managerED2Ev.exit:         ; preds = %31, %32, %38
  call void @llvm.lifetime.end.p0(i64 16, ptr nonnull %6) #24
  %.not.i.i5 = icmp eq ptr %15, null
  br i1 %.not.i.i5, label %_ZN7obj_refI4expr11ast_managerED2Ev.exit6, label %42

42:                                               ; preds = %_ZN7obj_refI4expr11ast_managerED2Ev.exit
  %43 = load ptr, ptr %8, align 8, !tbaa !73
  %44 = getelementptr inbounds nuw i8, ptr %15, i64 8
  %45 = load i32, ptr %44, align 4, !tbaa !71
  %46 = add i32 %45, -1
  store i32 %46, ptr %44, align 4, !tbaa !71
  %47 = icmp eq i32 %46, 0
  br i1 %47, label %48, label %_ZN7obj_refI4expr11ast_managerED2Ev.exit6

48:                                               ; preds = %42
  invoke void @_ZN11ast_manager11delete_nodeEP3ast(ptr noundef nonnull align 8 dereferenceable(976) %43, ptr noundef nonnull %15)
          to label %_ZN7obj_refI4expr11ast_managerED2Ev.exit6 unwind label %49

49:                                               ; preds = %48
  %50 = landingpad { ptr, i32 }
          catch ptr null
  %51 = extractvalue { ptr, i32 } %50, 0
  tail call void @__clang_call_terminate(ptr %51) #26
  unreachable

_ZN7obj_refI4expr11ast_managerED2Ev.exit6:        ; preds = %_ZN7obj_refI4expr11ast_managerED2Ev.exit, %42, %48
  call void @llvm.lifetime.end.p0(i64 16, ptr nonnull %5) #24
  ret i32 3

52:                                               ; preds = %30, %13, %11, %4
  %53 = landingpad { ptr, i32 }
          cleanup
  call void @_ZN7obj_refI4expr11ast_managerED2Ev(ptr noundef nonnull align 8 dereferenceable(16) %6) #24
  call void @llvm.lifetime.end.p0(i64 16, ptr nonnull %6) #24
  call void @_ZN7obj_refI4expr11ast_managerED2Ev(ptr noundef nonnull align 8 dereferenceable(16) %5) #24
  call void @llvm.lifetime.end.p0(i64 16, ptr nonnull %5) #24
  resume { ptr, i32 } %53
}